; Function Attrs: mustprogress uwtable
define void @_ZN5boost10test_tools9tt_detail15print_log_valueIhEclERSoh(ptr nocapture noundef nonnull readnone align 1 dereferenceable(1) %0, ptr noundef nonnull align 8 dereferenceable(8) %1, i8 noundef zeroext %2) local_unnamed_addr #3 align 2 {
  %4 = load ptr, ptr %1, align 8, !tbaa !3
  %5 = getelementptr i8, ptr %4, i64 -24
  %6 = load i64, ptr %5, align 8
  %7 = getelementptr inbounds i8, ptr %1, i64 %6
  %8 = getelementptr inbounds nuw i8, ptr %7, i64 24
  %9 = load i32, ptr %8, align 8, !tbaa !6
  %10 = and i32 %9, -75
  %11 = or disjoint i32 %10, 8
  store i32 %11, ptr %8, align 4, !tbaa !6
  %12 = load i64, ptr %5, align 8
  %13 = getelementptr inbounds i8, ptr %1, i64 %12
  %14 = getelementptr inbounds nuw i8, ptr %13, i64 24
  %15 = load i32, ptr %14, align 8, !tbaa !6
  %16 = or i32 %15, 512
  store i32 %16, ptr %14, align 4, !tbaa !6
  %17 = zext i8 %2 to i32
  %18 = tail call noundef nonnull align 8 dereferenceable(8) ptr @_ZNSolsEi(ptr noundef nonnull align 8 dereferenceable(8) %1, i32 noundef %17)
  ret void
}